; Function Attrs: mustprogress uwtable
define hidden void @_ZN4cvc58internal13preprocessing4util12ITEUtilitiesC2ERNS0_3EnvE(ptr noundef nonnull align 8 dereferenceable(48) %0, ptr noundef nonnull align 8 dereferenceable(696) %1) unnamed_addr #3 align 2 personality ptr @__gxx_personality_v0 {
  tail call void @_ZN4cvc58internal6EnvObjC2ERNS0_3EnvE(ptr noundef nonnull align 8 dereferenceable(16) %0, ptr noundef nonnull align 8 dereferenceable(696) %1)
  store ptr getelementptr inbounds nuw inrange(-16, 16) (i8, ptr @_ZTVN4cvc58internal13preprocessing4util12ITEUtilitiesE, i64 16), ptr %0, align 8, !tbaa !3
  %3 = tail call noalias noundef nonnull dereferenceable(56) ptr @_Znwm(i64 noundef 56) #27
  %4 = getelementptr inbounds nuw i8, ptr %3, i64 32
  store i64 0, ptr %4, align 8
  %5 = getelementptr inbounds nuw i8, ptr %3, i64 48
  store ptr %5, ptr %3, align 8, !tbaa !6
  %6 = getelementptr inbounds nuw i8, ptr %3, i64 8
  store i64 1, ptr %6, align 8, !tbaa !16
  %7 = getelementptr inbounds nuw i8, ptr %3, i64 16
  tail call void @llvm.memset.p0.i64(ptr noundef nonnull align 8 dereferenceable(16) %7, i8 0, i64 16, i1 false)
  store float 1.000000e+00, ptr %4, align 8, !tbaa !17
  %8 = getelementptr inbounds nuw i8, ptr %3, i64 40
  tail call void @llvm.memset.p0.i64(ptr noundef nonnull align 8 dereferenceable(16) %8, i8 0, i64 16, i1 false)
  %9 = getelementptr inbounds nuw i8, ptr %0, i64 16
  store ptr %3, ptr %9, align 8, !tbaa !18
  %10 = getelementptr inbounds nuw i8, ptr %0, i64 24
  tail call void @llvm.memset.p0.i64(ptr noundef nonnull align 8 dereferenceable(24) %10, i8 0, i64 24, i1 false)
  ret void
}